; Function Attrs: nounwind uwtable
define range(i32 -101, 1) i32 @CVodeGetAdjCurrentCheckPoint(ptr noundef %0, ptr noundef writeonly captures(none) %1) local_unnamed_addr #0 {
  %3 = icmp eq ptr %0, null
  br i1 %3, label %4, label %5

4:                                                ; preds = %2
  tail call void (ptr, i32, i32, ptr, ptr, ptr, ...) @cvProcessError(ptr noundef null, i32 noundef -21, i32 noundef 786, ptr noundef nonnull @__func__.CVodeGetAdjCurrentCheckPoint, ptr noundef nonnull @.str, ptr noundef nonnull @.str.1) #2
  br label %15

5:                                                ; preds = %2
  %6 = getelementptr inbounds nuw i8, ptr %0, i64 2680
  %7 = load i32, ptr %6, align 8
  %8 = icmp eq i32 %7, 0
  br i1 %8, label %9, label %10

9:                                                ; preds = %5
  tail call void (ptr, i32, i32, ptr, ptr, ptr, ...) @cvProcessError(ptr noundef nonnull %0, i32 noundef -101, i32 noundef 794, ptr noundef nonnull @__func__.CVodeGetAdjCurrentCheckPoint, ptr noundef nonnull @.str, ptr noundef nonnull @.str.2) #2
  br label %15

10:                                               ; preds = %5
  %11 = getelementptr inbounds nuw i8, ptr %0, i64 2672
  %12 = load ptr, ptr %11, align 8
  %13 = getelementptr inbounds nuw i8, ptr %12, i64 96
  %14 = load ptr, ptr %13, align 8
  store ptr %14, ptr %1, align 8
  br label %15

15:                                               ; preds = %10, %9, %4
  %.0 = phi i32 [ -21, %4 ], [ -101, %9 ], [ 0, %10 ]
  ret i32 %.0
}